; Function Attrs: nofree nounwind uwtable
define void @Aig_ManVerifyLevel(ptr noundef readonly captures(none) %0) local_unnamed_addr #4 {
  %2 = getelementptr inbounds nuw i8, ptr %0, i64 32
  %3 = load ptr, ptr %2, align 8, !tbaa !29
  %4 = getelementptr i8, ptr %3, i64 4
  %.val1829 = load i32, ptr %4, align 4, !tbaa !35
  %5 = icmp sgt i32 %.val1829, 0
  br i1 %5, label %.lr.ph, label %.critedge.thread

.lr.ph:                                           ; preds = %1, %56
  %6 = phi ptr [ %57, %56 ], [ %3, %1 ]
  %indvars.iv = phi i64 [ %indvars.iv.next, %56 ], [ 0, %1 ]
  %.031 = phi i32 [ %.1, %56 ], [ 0, %1 ]
  %7 = getelementptr i8, ptr %6, i64 8
  %.val = load ptr, ptr %7, align 8, !tbaa !30
  %8 = getelementptr inbounds nuw ptr, ptr %.val, i64 %indvars.iv
  %9 = load ptr, ptr %8, align 8, !tbaa !32
  %10 = icmp eq ptr %9, null
  br i1 %10, label %56, label %11

11:                                               ; preds = %.lr.ph
  %12 = getelementptr i8, ptr %9, i64 24
  %.val21 = load i64, ptr %12, align 8
  %13 = trunc i64 %.val21 to i32
  %14 = and i32 %13, 7
  %15 = add nsw i32 %14, -7
  %narrow.i = icmp ult i32 %15, -2
  br i1 %narrow.i, label %56, label %16

16:                                               ; preds = %11
  %17 = lshr i64 %.val21, 32
  %18 = trunc nuw i64 %17 to i32
  %19 = and i32 %18, 16777215
  %20 = getelementptr i8, ptr %9, i64 16
  %.val.i = load ptr, ptr %20, align 8, !tbaa !42
  %21 = ptrtoint ptr %.val.i to i64
  %22 = and i64 %21, -2
  %.not.i = icmp eq i64 %22, 0
  br i1 %.not.i, label %Aig_ObjLevelNew.exit, label %Aig_ObjLevelNew.exit.thread

Aig_ObjLevelNew.exit:                             ; preds = %16
  %23 = getelementptr i8, ptr %9, i64 8
  %.val8.i = load ptr, ptr %23, align 8, !tbaa !43
  %24 = ptrtoint ptr %.val8.i to i64
  %25 = and i64 %24, -2
  %26 = inttoptr i64 %25 to ptr
  %27 = getelementptr inbounds nuw i8, ptr %26, i64 24
  %28 = load i64, ptr %27, align 8
  %29 = lshr i64 %28, 32
  %30 = trunc nuw i64 %29 to i32
  %31 = and i32 %30, 16777215
  %.not17 = icmp eq i32 %19, %31
  br i1 %.not17, label %56, label %Aig_ObjLevelNew.exit27

Aig_ObjLevelNew.exit.thread:                      ; preds = %16
  %32 = inttoptr i64 %22 to ptr
  %33 = and i64 %.val21, 7
  %34 = icmp eq i64 %33, 6
  %35 = select i1 %34, i32 2, i32 1
  %36 = getelementptr i8, ptr %9, i64 8
  %.val7.i = load ptr, ptr %36, align 8, !tbaa !43
  %37 = ptrtoint ptr %.val7.i to i64
  %38 = and i64 %37, -2
  %39 = inttoptr i64 %38 to ptr
  %40 = getelementptr inbounds nuw i8, ptr %39, i64 24
  %41 = load i64, ptr %40, align 8
  %42 = lshr i64 %41, 32
  %43 = trunc nuw i64 %42 to i32
  %44 = and i32 %43, 16777215
  %45 = getelementptr inbounds nuw i8, ptr %32, i64 24
  %46 = load i64, ptr %45, align 8
  %47 = lshr i64 %46, 32
  %48 = trunc nuw i64 %47 to i32
  %49 = and i32 %48, 16777215
  %50 = tail call i32 @llvm.umax.i32(i32 %44, i32 %49)
  %51 = add nuw nsw i32 %50, %35
  %.not1728 = icmp eq i32 %19, %51
  br i1 %.not1728, label %56, label %Aig_ObjLevelNew.exit27

Aig_ObjLevelNew.exit27:                           ; preds = %Aig_ObjLevelNew.exit, %Aig_ObjLevelNew.exit.thread
  %52 = phi i32 [ %51, %Aig_ObjLevelNew.exit.thread ], [ %31, %Aig_ObjLevelNew.exit ]
  %.in = getelementptr inbounds nuw i8, ptr %9, i64 36
  %53 = load i32, ptr %.in, align 4, !tbaa !21
  %54 = tail call i32 (ptr, ...) @printf(ptr noundef nonnull dereferenceable(1) @.str, i32 noundef %53, i32 noundef %52, i32 noundef %19)
  %55 = add nsw i32 %.031, 1
  %.pre = load ptr, ptr %2, align 8, !tbaa !29
  br label %56

56:                                               ; preds = %Aig_ObjLevelNew.exit.thread, %11, %.lr.ph, %Aig_ObjLevelNew.exit27, %Aig_ObjLevelNew.exit
  %57 = phi ptr [ %6, %.lr.ph ], [ %.pre, %Aig_ObjLevelNew.exit27 ], [ %6, %Aig_ObjLevelNew.exit ], [ %6, %11 ], [ %6, %Aig_ObjLevelNew.exit.thread ]
  %.1 = phi i32 [ %.031, %.lr.ph ], [ %55, %Aig_ObjLevelNew.exit27 ], [ %.031, %Aig_ObjLevelNew.exit ], [ %.031, %11 ], [ %.031, %Aig_ObjLevelNew.exit.thread ]
  %indvars.iv.next = add nuw nsw i64 %indvars.iv, 1
  %58 = getelementptr i8, ptr %57, i64 4
  %.val18 = load i32, ptr %58, align 4, !tbaa !35
  %59 = sext i32 %.val18 to i64
  %60 = icmp slt i64 %indvars.iv.next, %59
  br i1 %60, label %.lr.ph, label %.critedge, !llvm.loop !52

.critedge:                                        ; preds = %56
  %.not = icmp eq i32 %.1, 0
  br i1 %.not, label %.critedge.thread, label %61

61:                                               ; preds = %.critedge
  %62 = tail call i32 (ptr, ...) @printf(ptr noundef nonnull dereferenceable(1) @.str.1, i32 noundef %.1)
  br label %.critedge.thread

.critedge.thread:                                 ; preds = %1, %61, %.critedge
  ret void
}